target datalayout = "e-m:e-p270:32:32-p271:32:32-p272:64:64-i64:64-i128:128-f80:128-n8:16:32:64-S128"
target triple = "x86_64-pc-linux-gnu"

%struct.JsonbInState = type { ptr, ptr, i8, ptr }
%struct.JsonbValue = type { i32, %union.anon }
%union.anon = type { %struct.anon.2 }
%struct.anon.2 = type { i32, ptr, i8 }
%struct.JsonbParseState = type { %struct.JsonbValue, i64, ptr, i8, i8 }

; Function Attrs: nounwind uwtable
define internal i32 @jsonb_in_object_start(ptr noundef %0) #0 {
  %2 = alloca ptr, align 8
  %3 = alloca ptr, align 8
  store ptr %0, ptr %2, align 8
  call void @llvm.lifetime.start.p0(i64 8, ptr %3) #8
  %4 = load ptr, ptr %2, align 8
  store ptr %4, ptr %3, align 8
  %5 = load ptr, ptr %3, align 8
  %6 = getelementptr inbounds nuw %struct.JsonbInState, ptr %5, i32 0, i32 0
  %7 = call ptr @pushJsonbValue(ptr noundef %6, i32 noundef 6, ptr noundef null)
  %8 = load ptr, ptr %3, align 8
  %9 = getelementptr inbounds nuw %struct.JsonbInState, ptr %8, i32 0, i32 1
  store ptr %7, ptr %9, align 8
  %10 = load ptr, ptr %3, align 8
  %11 = getelementptr inbounds nuw %struct.JsonbInState, ptr %10, i32 0, i32 2
  %12 = load i8, ptr %11, align 8, !range !4, !noundef !5
  %13 = trunc i8 %12 to i1
  %14 = load ptr, ptr %3, align 8
  %15 = getelementptr inbounds nuw %struct.JsonbInState, ptr %14, i32 0, i32 0
  %16 = load ptr, ptr %15, align 8
  %17 = getelementptr inbounds nuw %struct.JsonbParseState, ptr %16, i32 0, i32 3
  %18 = zext i1 %13 to i8
  store i8 %18, ptr %17, align 8
  call void @llvm.lifetime.end.p0(i64 8, ptr %3) #8
  ret i32 0
}