; Function Attrs: nounwind uwtable
define internal noundef i32 @jsonb_in_object_start(ptr noundef %0) #0 {
  %2 = tail call ptr @pushJsonbValue(ptr noundef %0, i32 noundef 6, ptr noundef null) #11
  %3 = getelementptr inbounds nuw i8, ptr %0, i64 8
  store ptr %2, ptr %3, align 8
  %4 = getelementptr inbounds nuw i8, ptr %0, i64 16
  %5 = load i8, ptr %4, align 8, !range !7, !noundef !8
  %6 = load ptr, ptr %0, align 8
  %7 = getelementptr inbounds nuw i8, ptr %6, i64 48
  store i8 %5, ptr %7, align 8
  ret i32 0
}